target datalayout = "e-m:e-p270:32:32-p271:32:32-p272:64:64-i64:64-i128:128-f80:128-n8:16:32:64-S128"
target triple = "x86_64-pc-linux-gnu"

%struct.WalSummaryIO = type { i32, i64 }
%struct.iovec = type { ptr, i64 }

@.str.4 = private unnamed_addr constant [13 x i8] c"walsummary.c\00", align 1
@.str.7 = private unnamed_addr constant [29 x i8] c"could not read file \22%s\22: %m\00", align 1
@__func__.ReadWalSummary = private unnamed_addr constant [15 x i8] c"ReadWalSummary\00", align 1

; Function Attrs: inlinehint nounwind uwtable
define internal i64 @FileRead(i32 noundef %0, ptr noundef %1, i64 noundef %2, i64 noundef %3, i32 noundef %4) #7 {
  %6 = alloca i32, align 4
  %7 = alloca ptr, align 8
  %8 = alloca i64, align 8
  %9 = alloca i64, align 8
  %10 = alloca i32, align 4
  %11 = alloca %struct.iovec, align 8
  store i32 %0, ptr %6, align 4
  store ptr %1, ptr %7, align 8
  store i64 %2, ptr %8, align 8
  store i64 %3, ptr %9, align 8
  store i32 %4, ptr %10, align 4
  call void @llvm.lifetime.start.p0(i64 16, ptr %11) #10
  %12 = getelementptr inbounds nuw %struct.iovec, ptr %11, i32 0, i32 0
  %13 = load ptr, ptr %7, align 8
  store ptr %13, ptr %12, align 8
  %14 = getelementptr inbounds nuw %struct.iovec, ptr %11, i32 0, i32 1
  %15 = load i64, ptr %8, align 8
  store i64 %15, ptr %14, align 8
  %16 = load i32, ptr %6, align 4
  %17 = load i64, ptr %9, align 8
  %18 = load i32, ptr %10, align 4
  %19 = call i64 @FileReadV(i32 noundef %16, ptr noundef %11, i32 noundef 1, i64 noundef %17, i32 noundef %18)
  call void @llvm.lifetime.end.p0(i64 16, ptr %11) #10
  ret i64 %19
}

; Function Attrs: nounwind uwtable
define dso_local i32 @ReadWalSummary(ptr noundef %0, ptr noundef %1, i32 noundef %2) #0 {
  %4 = alloca ptr, align 8
  %5 = alloca ptr, align 8
  %6 = alloca i32, align 4
  %7 = alloca ptr, align 8
  %8 = alloca i32, align 4
  store ptr %0, ptr %4, align 8
  store ptr %1, ptr %5, align 8
  store i32 %2, ptr %6, align 4
  call void @llvm.lifetime.start.p0(i64 8, ptr %7) #10
  %9 = load ptr, ptr %4, align 8
  store ptr %9, ptr %7, align 8
  call void @llvm.lifetime.start.p0(i64 4, ptr %8) #10
  %10 = load ptr, ptr %7, align 8
  %11 = getelementptr inbounds nuw %struct.WalSummaryIO, ptr %10, i32 0, i32 0
  %12 = load i32, ptr %11, align 8
  %13 = load ptr, ptr %5, align 8
  %14 = load i32, ptr %6, align 4
  %15 = sext i32 %14 to i64
  %16 = load ptr, ptr %7, align 8
  %17 = getelementptr inbounds nuw %struct.WalSummaryIO, ptr %16, i32 0, i32 1
  %18 = load i64, ptr %17, align 8
  %19 = call i64 @FileRead(i32 noundef %12, ptr noundef %13, i64 noundef %15, i64 noundef %18, i32 noundef 167772232)
  %20 = trunc i64 %19 to i32
  store i32 %20, ptr %8, align 4
  %21 = load i32, ptr %8, align 4
  %22 = icmp slt i32 %21, 0
  br i1 %22, label %23, label %39

23:                                               ; preds = %3
  br label %24

24:                                               ; preds = %23
  br i1 true, label %25, label %27

25:                                               ; preds = %24
  %26 = call zeroext i1 @errstart_cold(i32 noundef 21, ptr noundef null) #13
  br i1 %26, label %29, label %36

27:                                               ; preds = %24
  %28 = call zeroext i1 @errstart(i32 noundef 21, ptr noundef null)
  br i1 %28, label %29, label %36

29:                                               ; preds = %27, %25
  %30 = call i32 @errcode_for_file_access()
  %31 = load ptr, ptr %7, align 8
  %32 = getelementptr inbounds nuw %struct.WalSummaryIO, ptr %31, i32 0, i32 0
  %33 = load i32, ptr %32, align 8
  %34 = call ptr @FilePathName(i32 noundef %33)
  %35 = call i32 (ptr, ...) @errmsg(ptr noundef @.str.7, ptr noundef %34)
  call void @errfinish(ptr noundef @.str.4, i32 noundef 284, ptr noundef @__func__.ReadWalSummary)
  br label %36

36:                                               ; preds = %29, %27, %25
  unreachable

37:                                               ; No predecessors!
  br label %38

38:                                               ; preds = %37
  br label %39

39:                                               ; preds = %38, %3
  %40 = load i32, ptr %8, align 4
  %41 = sext i32 %40 to i64
  %42 = load ptr, ptr %7, align 8
  %43 = getelementptr inbounds nuw %struct.WalSummaryIO, ptr %42, i32 0, i32 1
  %44 = load i64, ptr %43, align 8
  %45 = add i64 %44, %41
  store i64 %45, ptr %43, align 8
  %46 = load i32, ptr %8, align 4
  call void @llvm.lifetime.end.p0(i64 4, ptr %8) #10
  call void @llvm.lifetime.end.p0(i64 8, ptr %7) #10
  ret i32 %46
}