; Function Attrs: nounwind uwtable
define dso_local range(i32 0, -2147483648) i32 @ReadWalSummary(ptr noundef captures(none) %0, ptr noundef %1, i32 noundef %2) local_unnamed_addr #0 {
  %4 = alloca %struct.iovec, align 8
  %5 = load i32, ptr %0, align 8
  %6 = sext i32 %2 to i64
  %7 = getelementptr inbounds nuw i8, ptr %0, i64 8
  %8 = load i64, ptr %7, align 8
  call void @llvm.lifetime.start.p0(i64 16, ptr nonnull %4) #12
  store ptr %1, ptr %4, align 8
  %9 = getelementptr inbounds nuw i8, ptr %4, i64 8
  store i64 %6, ptr %9, align 8
  %10 = call i64 @FileReadV(i32 noundef %5, ptr noundef nonnull %4, i32 noundef 1, i64 noundef %8, i32 noundef 167772232) #12
  call void @llvm.lifetime.end.p0(i64 16, ptr nonnull %4) #12
  %11 = trunc i64 %10 to i32
  %12 = icmp slt i32 %11, 0
  br i1 %12, label %13, label %19

13:                                               ; preds = %3
  %14 = call zeroext i1 @errstart_cold(i32 noundef 21, ptr noundef null) #15
  call void @llvm.assume(i1 %14)
  %15 = call i32 @errcode_for_file_access() #12
  %16 = load i32, ptr %0, align 8
  %17 = call ptr @FilePathName(i32 noundef %16) #12
  %18 = call i32 (ptr, ...) @errmsg(ptr noundef nonnull @.str.7, ptr noundef %17) #12
  call void @errfinish(ptr noundef nonnull @.str.4, i32 noundef 284, ptr noundef nonnull @__func__.ReadWalSummary) #12
  unreachable

19:                                               ; preds = %3
  %20 = and i64 %10, 2147483647
  %21 = load i64, ptr %7, align 8
  %22 = add i64 %21, %20
  store i64 %22, ptr %7, align 8
  ret i32 %11
}